
_stressfs:     file format elf32-i386


Disassembly of section .text:

00000000 <main>:
#include "fs.h"
#include "fcntl.h"

int
main(int argc, char *argv[])
{
   0:	f3 0f 1e fb          	endbr32 
   4:	8d 4c 24 04          	lea    0x4(%esp),%ecx
   8:	83 e4 f0             	and    $0xfffffff0,%esp
  int fd, i;
  char path[] = "stressfs0";
   b:	b8 30 00 00 00       	mov    $0x30,%eax
{
  10:	ff 71 fc             	pushl  -0x4(%ecx)
  13:	55                   	push   %ebp
  14:	89 e5                	mov    %esp,%ebp
  16:	57                   	push   %edi
  17:	56                   	push   %esi
  char data[512];

  printf(1, "stressfs starting\n");
  memset(data, 'a', sizeof(data));
  18:	8d b5 e8 fd ff ff    	lea    -0x218(%ebp),%esi
{
  1e:	53                   	push   %ebx

  for(i = 0; i < 4; i++)
  1f:	31 db                	xor    %ebx,%ebx
{
  21:	51                   	push   %ecx
  22:	81 ec 20 02 00 00    	sub    $0x220,%esp
  char path[] = "stressfs0";
  28:	66 89 85 e6 fd ff ff 	mov    %ax,-0x21a(%ebp)
  printf(1, "stressfs starting\n");
  2f:	68 a8 09 00 00       	push   $0x9a8
  34:	6a 01                	push   $0x1
  char path[] = "stressfs0";
  36:	c7 85 de fd ff ff 73 	movl   $0x65727473,-0x222(%ebp)
  3d:	74 72 65 
  40:	c7 85 e2 fd ff ff 73 	movl   $0x73667373,-0x21e(%ebp)
  47:	73 66 73 
  printf(1, "stressfs starting\n");
  4a:	e8 f1 05 00 00       	call   640 <printf>
  memset(data, 'a', sizeof(data));
  4f:	83 c4 0c             	add    $0xc,%esp
  52:	68 00 02 00 00       	push   $0x200
  57:	6a 61                	push   $0x61
  59:	56                   	push   %esi
  5a:	e8 a1 01 00 00       	call   200 <memset>
  5f:	83 c4 10             	add    $0x10,%esp
    if(fork() > 0)
  62:	e8 64 04 00 00       	call   4cb <fork>
  67:	85 c0                	test   %eax,%eax
  69:	0f 8f bb 00 00 00    	jg     12a <main+0x12a>
  for(i = 0; i < 4; i++)
  6f:	83 c3 01             	add    $0x1,%ebx
  72:	83 fb 04             	cmp    $0x4,%ebx
  75:	75 eb                	jne    62 <main+0x62>
  77:	bf 04 00 00 00       	mov    $0x4,%edi
      break;

  printf(1, "write %d\n", i);
  7c:	83 ec 04             	sub    $0x4,%esp
  7f:	53                   	push   %ebx

  path[8] += i;
  fd = open(path, O_CREATE | O_RDWR);
  80:	bb 14 00 00 00       	mov    $0x14,%ebx
  printf(1, "write %d\n", i);
  85:	68 bb 09 00 00       	push   $0x9bb
  8a:	6a 01                	push   $0x1
  8c:	e8 af 05 00 00       	call   640 <printf>
  path[8] += i;
  91:	89 f8                	mov    %edi,%eax
  fd = open(path, O_CREATE | O_RDWR);
  93:	5f                   	pop    %edi
  path[8] += i;
  94:	00 85 e6 fd ff ff    	add    %al,-0x21a(%ebp)
  fd = open(path, O_CREATE | O_RDWR);
  9a:	58                   	pop    %eax
  9b:	8d 85 de fd ff ff    	lea    -0x222(%ebp),%eax
  a1:	68 02 02 00 00       	push   $0x202
  a6:	50                   	push   %eax
  a7:	e8 67 04 00 00       	call   513 <open>
  ac:	83 c4 10             	add    $0x10,%esp
  af:	89 c7                	mov    %eax,%edi
  for(i = 0; i < 20; i++)
  b1:	8d b4 26 00 00 00 00 	lea    0x0(%esi,%eiz,1),%esi
//    printf(fd, "%d\n", i);
    write(fd, data, sizeof(data));
  b8:	83 ec 04             	sub    $0x4,%esp
  bb:	68 00 02 00 00       	push   $0x200
  c0:	56                   	push   %esi
  c1:	57                   	push   %edi
  c2:	e8 2c 04 00 00       	call   4f3 <write>
  for(i = 0; i < 20; i++)
  c7:	83 c4 10             	add    $0x10,%esp
  ca:	83 eb 01             	sub    $0x1,%ebx
  cd:	75 e9                	jne    b8 <main+0xb8>
  close(fd);
  cf:	83 ec 0c             	sub    $0xc,%esp
  d2:	57                   	push   %edi
  d3:	e8 23 04 00 00       	call   4fb <close>

  printf(1, "read\n");
  d8:	58                   	pop    %eax
  d9:	5a                   	pop    %edx
  da:	68 c5 09 00 00       	push   $0x9c5
  df:	6a 01                	push   $0x1
  e1:	e8 5a 05 00 00       	call   640 <printf>

  fd = open(path, O_RDONLY);
  e6:	8d 85 de fd ff ff    	lea    -0x222(%ebp),%eax
  ec:	59                   	pop    %ecx
  ed:	5b                   	pop    %ebx
  ee:	6a 00                	push   $0x0
  f0:	bb 14 00 00 00       	mov    $0x14,%ebx
  f5:	50                   	push   %eax
  f6:	e8 18 04 00 00       	call   513 <open>
  fb:	83 c4 10             	add    $0x10,%esp
  fe:	89 c7                	mov    %eax,%edi
  for (i = 0; i < 20; i++)
    read(fd, data, sizeof(data));
 100:	83 ec 04             	sub    $0x4,%esp
 103:	68 00 02 00 00       	push   $0x200
 108:	56                   	push   %esi
 109:	57                   	push   %edi
 10a:	e8 dc 03 00 00       	call   4eb <read>
  for (i = 0; i < 20; i++)
 10f:	83 c4 10             	add    $0x10,%esp
 112:	83 eb 01             	sub    $0x1,%ebx
 115:	75 e9                	jne    100 <main+0x100>
  close(fd);
 117:	83 ec 0c             	sub    $0xc,%esp
 11a:	57                   	push   %edi
 11b:	e8 db 03 00 00       	call   4fb <close>

  wait();
 120:	e8 b6 03 00 00       	call   4db <wait>

  exit();
 125:	e8 a9 03 00 00       	call   4d3 <exit>
 12a:	89 df                	mov    %ebx,%edi
 12c:	e9 4b ff ff ff       	jmp    7c <main+0x7c>
 131:	66 90                	xchg   %ax,%ax
 133:	66 90                	xchg   %ax,%ax
 135:	66 90                	xchg   %ax,%ax
 137:	66 90                	xchg   %ax,%ax
 139:	66 90                	xchg   %ax,%ax
 13b:	66 90                	xchg   %ax,%ax
 13d:	66 90                	xchg   %ax,%ax
 13f:	90                   	nop

00000140 <strcpy>:
#include "x86.h"
#include "mmu.h"  // PGSIZE // Code added by Greg, Shawn, and Minh, Homework 6

char*
strcpy(char *s, const char *t)
{
 140:	f3 0f 1e fb          	endbr32 
 144:	55                   	push   %ebp
  char *os;

  os = s;
  while((*s++ = *t++) != 0)
 145:	31 c0                	xor    %eax,%eax
{
 147:	89 e5                	mov    %esp,%ebp
 149:	53                   	push   %ebx
 14a:	8b 4d 08             	mov    0x8(%ebp),%ecx
 14d:	8b 5d 0c             	mov    0xc(%ebp),%ebx
  while((*s++ = *t++) != 0)
 150:	0f b6 14 03          	movzbl (%ebx,%eax,1),%edx
 154:	88 14 01             	mov    %dl,(%ecx,%eax,1)
 157:	83 c0 01             	add    $0x1,%eax
 15a:	84 d2                	test   %dl,%dl
 15c:	75 f2                	jne    150 <strcpy+0x10>
    ;
  return os;
}
 15e:	89 c8                	mov    %ecx,%eax
 160:	5b                   	pop    %ebx
 161:	5d                   	pop    %ebp
 162:	c3                   	ret    
 163:	8d b4 26 00 00 00 00 	lea    0x0(%esi,%eiz,1),%esi
 16a:	8d b6 00 00 00 00    	lea    0x0(%esi),%esi

00000170 <strcmp>:

int
strcmp(const char *p, const char *q)
{
 170:	f3 0f 1e fb          	endbr32 
 174:	55                   	push   %ebp
 175:	89 e5                	mov    %esp,%ebp
 177:	53                   	push   %ebx
 178:	8b 4d 08             	mov    0x8(%ebp),%ecx
 17b:	8b 55 0c             	mov    0xc(%ebp),%edx
  while(*p && *p == *q)
 17e:	0f b6 01             	movzbl (%ecx),%eax
 181:	0f b6 1a             	movzbl (%edx),%ebx
 184:	84 c0                	test   %al,%al
 186:	75 19                	jne    1a1 <strcmp+0x31>
 188:	eb 26                	jmp    1b0 <strcmp+0x40>
 18a:	8d b6 00 00 00 00    	lea    0x0(%esi),%esi
 190:	0f b6 41 01          	movzbl 0x1(%ecx),%eax
    p++, q++;
 194:	83 c1 01             	add    $0x1,%ecx
 197:	83 c2 01             	add    $0x1,%edx
  while(*p && *p == *q)
 19a:	0f b6 1a             	movzbl (%edx),%ebx
 19d:	84 c0                	test   %al,%al
 19f:	74 0f                	je     1b0 <strcmp+0x40>
 1a1:	38 d8                	cmp    %bl,%al
 1a3:	74 eb                	je     190 <strcmp+0x20>
  return (uchar)*p - (uchar)*q;
 1a5:	29 d8                	sub    %ebx,%eax
}
 1a7:	5b                   	pop    %ebx
 1a8:	5d                   	pop    %ebp
 1a9:	c3                   	ret    
 1aa:	8d b6 00 00 00 00    	lea    0x0(%esi),%esi
 1b0:	31 c0                	xor    %eax,%eax
  return (uchar)*p - (uchar)*q;
 1b2:	29 d8                	sub    %ebx,%eax
}
 1b4:	5b                   	pop    %ebx
 1b5:	5d                   	pop    %ebp
 1b6:	c3                   	ret    
 1b7:	8d b4 26 00 00 00 00 	lea    0x0(%esi,%eiz,1),%esi
 1be:	66 90                	xchg   %ax,%ax

000001c0 <strlen>:

uint
strlen(const char *s)
{
 1c0:	f3 0f 1e fb          	endbr32 
 1c4:	55                   	push   %ebp
 1c5:	89 e5                	mov    %esp,%ebp
 1c7:	8b 55 08             	mov    0x8(%ebp),%edx
  int n;

  for(n = 0; s[n]; n++)
 1ca:	80 3a 00             	cmpb   $0x0,(%edx)
 1cd:	74 21                	je     1f0 <strlen+0x30>
 1cf:	31 c0                	xor    %eax,%eax
 1d1:	8d b4 26 00 00 00 00 	lea    0x0(%esi,%eiz,1),%esi
 1d8:	83 c0 01             	add    $0x1,%eax
 1db:	80 3c 02 00          	cmpb   $0x0,(%edx,%eax,1)
 1df:	89 c1                	mov    %eax,%ecx
 1e1:	75 f5                	jne    1d8 <strlen+0x18>
    ;
  return n;
}
 1e3:	89 c8                	mov    %ecx,%eax
 1e5:	5d                   	pop    %ebp
 1e6:	c3                   	ret    
 1e7:	8d b4 26 00 00 00 00 	lea    0x0(%esi,%eiz,1),%esi
 1ee:	66 90                	xchg   %ax,%ax
  for(n = 0; s[n]; n++)
 1f0:	31 c9                	xor    %ecx,%ecx
}
 1f2:	5d                   	pop    %ebp
 1f3:	89 c8                	mov    %ecx,%eax
 1f5:	c3                   	ret    
 1f6:	8d b4 26 00 00 00 00 	lea    0x0(%esi,%eiz,1),%esi
 1fd:	8d 76 00             	lea    0x0(%esi),%esi

00000200 <memset>:

void*
memset(void *dst, int c, uint n)
{
 200:	f3 0f 1e fb          	endbr32 
 204:	55                   	push   %ebp
 205:	89 e5                	mov    %esp,%ebp
 207:	57                   	push   %edi
 208:	8b 55 08             	mov    0x8(%ebp),%edx
}

static inline void
stosb(void *addr, int data, int cnt)
{
  asm volatile("cld; rep stosb" :
 20b:	8b 4d 10             	mov    0x10(%ebp),%ecx
 20e:	8b 45 0c             	mov    0xc(%ebp),%eax
 211:	89 d7                	mov    %edx,%edi
 213:	fc                   	cld    
 214:	f3 aa                	rep stos %al,%es:(%edi)
  stosb(dst, c, n);
  return dst;
}
 216:	89 d0                	mov    %edx,%eax
 218:	5f                   	pop    %edi
 219:	5d                   	pop    %ebp
 21a:	c3                   	ret    
 21b:	8d 74 26 00          	lea    0x0(%esi,%eiz,1),%esi
 21f:	90                   	nop

00000220 <strchr>:

char*
strchr(const char *s, char c)
{
 220:	f3 0f 1e fb          	endbr32 
 224:	55                   	push   %ebp
 225:	89 e5                	mov    %esp,%ebp
 227:	8b 45 08             	mov    0x8(%ebp),%eax
 22a:	0f b6 4d 0c          	movzbl 0xc(%ebp),%ecx
  for(; *s; s++)
 22e:	0f b6 10             	movzbl (%eax),%edx
 231:	84 d2                	test   %dl,%dl
 233:	75 16                	jne    24b <strchr+0x2b>
 235:	eb 21                	jmp    258 <strchr+0x38>
 237:	8d b4 26 00 00 00 00 	lea    0x0(%esi,%eiz,1),%esi
 23e:	66 90                	xchg   %ax,%ax
 240:	0f b6 50 01          	movzbl 0x1(%eax),%edx
 244:	83 c0 01             	add    $0x1,%eax
 247:	84 d2                	test   %dl,%dl
 249:	74 0d                	je     258 <strchr+0x38>
    if(*s == c)
 24b:	38 d1                	cmp    %dl,%cl
 24d:	75 f1                	jne    240 <strchr+0x20>
      return (char*)s;
  return 0;
}
 24f:	5d                   	pop    %ebp
 250:	c3                   	ret    
 251:	8d b4 26 00 00 00 00 	lea    0x0(%esi,%eiz,1),%esi
  return 0;
 258:	31 c0                	xor    %eax,%eax
}
 25a:	5d                   	pop    %ebp
 25b:	c3                   	ret    
 25c:	8d 74 26 00          	lea    0x0(%esi,%eiz,1),%esi

00000260 <gets>:

char*
gets(char *buf, int max)
{
 260:	f3 0f 1e fb          	endbr32 
 264:	55                   	push   %ebp
 265:	89 e5                	mov    %esp,%ebp
 267:	57                   	push   %edi
 268:	56                   	push   %esi
  int i, cc;
  char c;

  for(i=0; i+1 < max; ){
 269:	31 f6                	xor    %esi,%esi
{
 26b:	53                   	push   %ebx
 26c:	89 f3                	mov    %esi,%ebx
 26e:	83 ec 1c             	sub    $0x1c,%esp
 271:	8b 7d 08             	mov    0x8(%ebp),%edi
  for(i=0; i+1 < max; ){
 274:	eb 33                	jmp    2a9 <gets+0x49>
 276:	8d b4 26 00 00 00 00 	lea    0x0(%esi,%eiz,1),%esi
 27d:	8d 76 00             	lea    0x0(%esi),%esi
    cc = read(0, &c, 1);
 280:	83 ec 04             	sub    $0x4,%esp
 283:	8d 45 e7             	lea    -0x19(%ebp),%eax
 286:	6a 01                	push   $0x1
 288:	50                   	push   %eax
 289:	6a 00                	push   $0x0
 28b:	e8 5b 02 00 00       	call   4eb <read>
    if(cc < 1)
 290:	83 c4 10             	add    $0x10,%esp
 293:	85 c0                	test   %eax,%eax
 295:	7e 1c                	jle    2b3 <gets+0x53>
      break;
    buf[i++] = c;
 297:	0f b6 45 e7          	movzbl -0x19(%ebp),%eax
 29b:	83 c7 01             	add    $0x1,%edi
 29e:	88 47 ff             	mov    %al,-0x1(%edi)
    if(c == '\n' || c == '\r')
 2a1:	3c 0a                	cmp    $0xa,%al
 2a3:	74 23                	je     2c8 <gets+0x68>
 2a5:	3c 0d                	cmp    $0xd,%al
 2a7:	74 1f                	je     2c8 <gets+0x68>
  for(i=0; i+1 < max; ){
 2a9:	83 c3 01             	add    $0x1,%ebx
 2ac:	89 fe                	mov    %edi,%esi
 2ae:	3b 5d 0c             	cmp    0xc(%ebp),%ebx
 2b1:	7c cd                	jl     280 <gets+0x20>
 2b3:	89 f3                	mov    %esi,%ebx
      break;
  }
  buf[i] = '\0';
  return buf;
}
 2b5:	8b 45 08             	mov    0x8(%ebp),%eax
  buf[i] = '\0';
 2b8:	c6 03 00             	movb   $0x0,(%ebx)
}
 2bb:	8d 65 f4             	lea    -0xc(%ebp),%esp
 2be:	5b                   	pop    %ebx
 2bf:	5e                   	pop    %esi
 2c0:	5f                   	pop    %edi
 2c1:	5d                   	pop    %ebp
 2c2:	c3                   	ret    
 2c3:	8d 74 26 00          	lea    0x0(%esi,%eiz,1),%esi
 2c7:	90                   	nop
 2c8:	8b 75 08             	mov    0x8(%ebp),%esi
 2cb:	8b 45 08             	mov    0x8(%ebp),%eax
 2ce:	01 de                	add    %ebx,%esi
 2d0:	89 f3                	mov    %esi,%ebx
  buf[i] = '\0';
 2d2:	c6 03 00             	movb   $0x0,(%ebx)
}
 2d5:	8d 65 f4             	lea    -0xc(%ebp),%esp
 2d8:	5b                   	pop    %ebx
 2d9:	5e                   	pop    %esi
 2da:	5f                   	pop    %edi
 2db:	5d                   	pop    %ebp
 2dc:	c3                   	ret    
 2dd:	8d 76 00             	lea    0x0(%esi),%esi

000002e0 <stat>:

int
stat(const char *n, struct stat *st)
{
 2e0:	f3 0f 1e fb          	endbr32 
 2e4:	55                   	push   %ebp
 2e5:	89 e5                	mov    %esp,%ebp
 2e7:	56                   	push   %esi
 2e8:	53                   	push   %ebx
  int fd;
  int r;

  fd = open(n, O_RDONLY);
 2e9:	83 ec 08             	sub    $0x8,%esp
 2ec:	6a 00                	push   $0x0
 2ee:	ff 75 08             	pushl  0x8(%ebp)
 2f1:	e8 1d 02 00 00       	call   513 <open>
  if(fd < 0)
 2f6:	83 c4 10             	add    $0x10,%esp
 2f9:	85 c0                	test   %eax,%eax
 2fb:	78 2b                	js     328 <stat+0x48>
    return -1;
  r = fstat(fd, st);
 2fd:	83 ec 08             	sub    $0x8,%esp
 300:	ff 75 0c             	pushl  0xc(%ebp)
 303:	89 c3                	mov    %eax,%ebx
 305:	50                   	push   %eax
 306:	e8 20 02 00 00       	call   52b <fstat>
  close(fd);
 30b:	89 1c 24             	mov    %ebx,(%esp)
  r = fstat(fd, st);
 30e:	89 c6                	mov    %eax,%esi
  close(fd);
 310:	e8 e6 01 00 00       	call   4fb <close>
  return r;
 315:	83 c4 10             	add    $0x10,%esp
}
 318:	8d 65 f8             	lea    -0x8(%ebp),%esp
 31b:	89 f0                	mov    %esi,%eax
 31d:	5b                   	pop    %ebx
 31e:	5e                   	pop    %esi
 31f:	5d                   	pop    %ebp
 320:	c3                   	ret    
 321:	8d b4 26 00 00 00 00 	lea    0x0(%esi,%eiz,1),%esi
    return -1;
 328:	be ff ff ff ff       	mov    $0xffffffff,%esi
 32d:	eb e9                	jmp    318 <stat+0x38>
 32f:	90                   	nop

00000330 <atoi>:

int
atoi(const char *s)
{
 330:	f3 0f 1e fb          	endbr32 
 334:	55                   	push   %ebp
 335:	89 e5                	mov    %esp,%ebp
 337:	53                   	push   %ebx
 338:	8b 55 08             	mov    0x8(%ebp),%edx
  int n;

  n = 0;
  while('0' <= *s && *s <= '9')
 33b:	0f be 02             	movsbl (%edx),%eax
 33e:	8d 48 d0             	lea    -0x30(%eax),%ecx
 341:	80 f9 09             	cmp    $0x9,%cl
  n = 0;
 344:	b9 00 00 00 00       	mov    $0x0,%ecx
  while('0' <= *s && *s <= '9')
 349:	77 1a                	ja     365 <atoi+0x35>
 34b:	8d 74 26 00          	lea    0x0(%esi,%eiz,1),%esi
 34f:	90                   	nop
    n = n*10 + *s++ - '0';
 350:	83 c2 01             	add    $0x1,%edx
 353:	8d 0c 89             	lea    (%ecx,%ecx,4),%ecx
 356:	8d 4c 48 d0          	lea    -0x30(%eax,%ecx,2),%ecx
  while('0' <= *s && *s <= '9')
 35a:	0f be 02             	movsbl (%edx),%eax
 35d:	8d 58 d0             	lea    -0x30(%eax),%ebx
 360:	80 fb 09             	cmp    $0x9,%bl
 363:	76 eb                	jbe    350 <atoi+0x20>
  return n;
}
 365:	89 c8                	mov    %ecx,%eax
 367:	5b                   	pop    %ebx
 368:	5d                   	pop    %ebp
 369:	c3                   	ret    
 36a:	8d b6 00 00 00 00    	lea    0x0(%esi),%esi

00000370 <memmove>:

void*
memmove(void *vdst, const void *vsrc, int n)
{
 370:	f3 0f 1e fb          	endbr32 
 374:	55                   	push   %ebp
 375:	89 e5                	mov    %esp,%ebp
 377:	57                   	push   %edi
 378:	8b 45 10             	mov    0x10(%ebp),%eax
 37b:	8b 55 08             	mov    0x8(%ebp),%edx
 37e:	56                   	push   %esi
 37f:	8b 75 0c             	mov    0xc(%ebp),%esi
  char *dst;
  const char *src;

  dst = vdst;
  src = vsrc;
  while(n-- > 0)
 382:	85 c0                	test   %eax,%eax
 384:	7e 0f                	jle    395 <memmove+0x25>
 386:	01 d0                	add    %edx,%eax
  dst = vdst;
 388:	89 d7                	mov    %edx,%edi
 38a:	8d b6 00 00 00 00    	lea    0x0(%esi),%esi
    *dst++ = *src++;
 390:	a4                   	movsb  %ds:(%esi),%es:(%edi)
  while(n-- > 0)
 391:	39 f8                	cmp    %edi,%eax
 393:	75 fb                	jne    390 <memmove+0x20>
  return vdst;
}
 395:	5e                   	pop    %esi
 396:	89 d0                	mov    %edx,%eax
 398:	5f                   	pop    %edi
 399:	5d                   	pop    %ebp
 39a:	c3                   	ret    
 39b:	8d 74 26 00          	lea    0x0(%esi,%eiz,1),%esi
 39f:	90                   	nop

000003a0 <thread_create>:

/* End of code added by Greg, Shawn, Mink, Homework 6 */

/* Start of code added by Greg, Shawn, Mink, Homework 6 */

int thread_create(void (*start_routine)(void *, void *), void *arg1, void *arg2) {
 3a0:	f3 0f 1e fb          	endbr32 
 3a4:	55                   	push   %ebp
 3a5:	89 e5                	mov    %esp,%ebp
 3a7:	53                   	push   %ebx
 3a8:	83 ec 20             	sub    $0x20,%esp
  void *stack = malloc(PGSIZE*2);
 3ab:	68 00 20 00 00       	push   $0x2000
 3b0:	e8 eb 04 00 00       	call   8a0 <malloc>
  if (stack == 0)
 3b5:	83 c4 10             	add    $0x10,%esp
 3b8:	85 c0                	test   %eax,%eax
 3ba:	74 53                	je     40f <thread_create+0x6f>
 3bc:	89 c3                	mov    %eax,%ebx
    return -1;
  if ((uint)stack % PGSIZE) {
 3be:	25 ff 0f 00 00       	and    $0xfff,%eax
 3c3:	75 23                	jne    3e8 <thread_create+0x48>
    stack = stack + (4096 - (uint)stack % PGSIZE);
  }
  int r = clone(start_routine, arg1, arg2, stack);
 3c5:	53                   	push   %ebx
 3c6:	ff 75 10             	pushl  0x10(%ebp)
 3c9:	ff 75 0c             	pushl  0xc(%ebp)
 3cc:	ff 75 08             	pushl  0x8(%ebp)
 3cf:	e8 9f 01 00 00       	call   573 <clone>
  if (r == -1)
 3d4:	83 c4 10             	add    $0x10,%esp
 3d7:	83 f8 ff             	cmp    $0xffffffff,%eax
 3da:	74 1c                	je     3f8 <thread_create+0x58>
    free(stack);
  return r;
}
 3dc:	8b 5d fc             	mov    -0x4(%ebp),%ebx
 3df:	c9                   	leave  
 3e0:	c3                   	ret    
 3e1:	8d b4 26 00 00 00 00 	lea    0x0(%esi,%eiz,1),%esi
    stack = stack + (4096 - (uint)stack % PGSIZE);
 3e8:	29 c3                	sub    %eax,%ebx
 3ea:	81 c3 00 10 00 00    	add    $0x1000,%ebx
 3f0:	eb d3                	jmp    3c5 <thread_create+0x25>
 3f2:	8d b6 00 00 00 00    	lea    0x0(%esi),%esi
    free(stack);
 3f8:	83 ec 0c             	sub    $0xc,%esp
 3fb:	89 45 f4             	mov    %eax,-0xc(%ebp)
 3fe:	53                   	push   %ebx
 3ff:	e8 0c 04 00 00       	call   810 <free>
 404:	8b 45 f4             	mov    -0xc(%ebp),%eax
}
 407:	8b 5d fc             	mov    -0x4(%ebp),%ebx
    free(stack);
 40a:	83 c4 10             	add    $0x10,%esp
}
 40d:	c9                   	leave  
 40e:	c3                   	ret    
    return -1;
 40f:	b8 ff ff ff ff       	mov    $0xffffffff,%eax
 414:	eb c6                	jmp    3dc <thread_create+0x3c>
 416:	8d b4 26 00 00 00 00 	lea    0x0(%esi,%eiz,1),%esi
 41d:	8d 76 00             	lea    0x0(%esi),%esi

00000420 <thread_join>:

/* End of code added by Greg, Shawn, Mink, Homework 6 */

/* Start of code added by Greg, Shawn, Mink, Homework 6 */

int thread_join() {
 420:	f3 0f 1e fb          	endbr32 
 424:	55                   	push   %ebp
 425:	89 e5                	mov    %esp,%ebp
 427:	56                   	push   %esi
 428:	83 ec 20             	sub    $0x20,%esp
  // 
  void **stack = (void**)malloc(sizeof(void**)); // allocated space
 42b:	6a 04                	push   $0x4
 42d:	e8 6e 04 00 00       	call   8a0 <malloc>
  int pidThread = join(stack);
 432:	89 04 24             	mov    %eax,(%esp)
  void **stack = (void**)malloc(sizeof(void**)); // allocated space
 435:	89 c6                	mov    %eax,%esi
  int pidThread = join(stack);
 437:	e8 3f 01 00 00       	call   57b <join>
  if (pidThread != -1) {
 43c:	83 c4 10             	add    $0x10,%esp
 43f:	83 f8 ff             	cmp    $0xffffffff,%eax
 442:	74 12                	je     456 <thread_join+0x36>
    // if stack is not allocated correctly => free stack
    free(stack);
 444:	83 ec 0c             	sub    $0xc,%esp
 447:	89 45 f4             	mov    %eax,-0xc(%ebp)
 44a:	56                   	push   %esi
 44b:	e8 c0 03 00 00       	call   810 <free>
 450:	8b 45 f4             	mov    -0xc(%ebp),%eax
 453:	83 c4 10             	add    $0x10,%esp
  }

  return pidThread;
}
 456:	8b 75 fc             	mov    -0x4(%ebp),%esi
 459:	c9                   	leave  
 45a:	c3                   	ret    
 45b:	8d 74 26 00          	lea    0x0(%esi,%eiz,1),%esi
 45f:	90                   	nop

00000460 <lock_init>:

/* End of code added by Greg, Shawn, Mink, Homework 6 */

/* Start of code added by Greg, Shawn, Mink, Homework 6 */

void lock_init(lock_t * lock) {
 460:	f3 0f 1e fb          	endbr32 
 464:	55                   	push   %ebp
 465:	89 e5                	mov    %esp,%ebp
 467:	8b 45 08             	mov    0x8(%ebp),%eax
  lock->ticket = 0;
 46a:	c7 00 00 00 00 00    	movl   $0x0,(%eax)
  lock->turn = 0;
 470:	c7 40 04 00 00 00 00 	movl   $0x0,0x4(%eax)
}
 477:	5d                   	pop    %ebp
 478:	c3                   	ret    
 479:	8d b4 26 00 00 00 00 	lea    0x0(%esi,%eiz,1),%esi

00000480 <lock_aquire>:

/* End of code added by Greg, Shawn, Mink, Homework 6 */

/* Start of code added by Greg, Shawn, Mink, Homework 6 */

void lock_aquire(lock_t * lock) {
 480:	f3 0f 1e fb          	endbr32 
 484:	55                   	push   %ebp
    __asm__ volatile("lock; xaddl %0, %1"
 485:	ba 01 00 00 00       	mov    $0x1,%edx
void lock_aquire(lock_t * lock) {
 48a:	89 e5                	mov    %esp,%ebp
 48c:	8b 45 08             	mov    0x8(%ebp),%eax
    __asm__ volatile("lock; xaddl %0, %1"
 48f:	f0 0f c1 10          	lock xadd %edx,(%eax)
  int myTurn = fetch_and_add(&lock->ticket, 1);
  while(lock->turn != myTurn)
 493:	3b 50 04             	cmp    0x4(%eax),%edx
 496:	74 12                	je     4aa <lock_aquire+0x2a>
 498:	8d b4 26 00 00 00 00 	lea    0x0(%esi,%eiz,1),%esi
 49f:	90                   	nop
  // Tell the C compiler and the processor to not move loads or stores
  // past this point, to ensure that the critical section's memory
  // references happen after the lock is acquired.
    __sync_synchronize();
 4a0:	f0 83 0c 24 00       	lock orl $0x0,(%esp)
  while(lock->turn != myTurn)
 4a5:	39 50 04             	cmp    %edx,0x4(%eax)
 4a8:	75 f6                	jne    4a0 <lock_aquire+0x20>
}
 4aa:	5d                   	pop    %ebp
 4ab:	c3                   	ret    
 4ac:	8d 74 26 00          	lea    0x0(%esi,%eiz,1),%esi

000004b0 <lock_release>:

/* End of code added by Greg, Shawn, Mink, Homework 6 */

/* Start of code added by Greg, Shawn, Mink, Homework 6 */

void lock_release(lock_t * lock) {
 4b0:	f3 0f 1e fb          	endbr32 
 4b4:	55                   	push   %ebp
    __asm__ volatile("lock; xaddl %0, %1"
 4b5:	b8 01 00 00 00       	mov    $0x1,%eax
void lock_release(lock_t * lock) {
 4ba:	89 e5                	mov    %esp,%ebp
 4bc:	8b 55 08             	mov    0x8(%ebp),%edx
    __asm__ volatile("lock; xaddl %0, %1"
 4bf:	f0 0f c1 42 04       	lock xadd %eax,0x4(%edx)
  // Tell the C compiler and the processor to not move loads or stores
  // past this point, to ensure that all the stores in the critical
  // section are visible to other cores before the lock is released.
  // Both the C compiler and the hardware may re-order loads and
  // stores; __sync_synchronize() tells them both not to.
  __sync_synchronize();
 4c4:	f0 83 0c 24 00       	lock orl $0x0,(%esp)
}
 4c9:	5d                   	pop    %ebp
 4ca:	c3                   	ret    

000004cb <fork>:
 4cb:	b8 01 00 00 00       	mov    $0x1,%eax
 4d0:	cd 40                	int    $0x40
 4d2:	c3                   	ret    

000004d3 <exit>:
 4d3:	b8 02 00 00 00       	mov    $0x2,%eax
 4d8:	cd 40                	int    $0x40
 4da:	c3                   	ret    

000004db <wait>:
 4db:	b8 03 00 00 00       	mov    $0x3,%eax
 4e0:	cd 40                	int    $0x40
 4e2:	c3                   	ret    

000004e3 <pipe>:
 4e3:	b8 04 00 00 00       	mov    $0x4,%eax
 4e8:	cd 40                	int    $0x40
 4ea:	c3                   	ret    

000004eb <read>:
 4eb:	b8 05 00 00 00       	mov    $0x5,%eax
 4f0:	cd 40                	int    $0x40
 4f2:	c3                   	ret    

000004f3 <write>:
 4f3:	b8 10 00 00 00       	mov    $0x10,%eax
 4f8:	cd 40                	int    $0x40
 4fa:	c3                   	ret    

000004fb <close>:
 4fb:	b8 15 00 00 00       	mov    $0x15,%eax
 500:	cd 40                	int    $0x40
 502:	c3                   	ret    

00000503 <kill>:
 503:	b8 06 00 00 00       	mov    $0x6,%eax
 508:	cd 40                	int    $0x40
 50a:	c3                   	ret    

0000050b <exec>:
 50b:	b8 07 00 00 00       	mov    $0x7,%eax
 510:	cd 40                	int    $0x40
 512:	c3                   	ret    

00000513 <open>:
 513:	b8 0f 00 00 00       	mov    $0xf,%eax
 518:	cd 40                	int    $0x40
 51a:	c3                   	ret    

0000051b <mknod>:
 51b:	b8 11 00 00 00       	mov    $0x11,%eax
 520:	cd 40                	int    $0x40
 522:	c3                   	ret    

00000523 <unlink>:
 523:	b8 12 00 00 00       	mov    $0x12,%eax
 528:	cd 40                	int    $0x40
 52a:	c3                   	ret    

0000052b <fstat>:
 52b:	b8 08 00 00 00       	mov    $0x8,%eax
 530:	cd 40                	int    $0x40
 532:	c3                   	ret    

00000533 <link>:
 533:	b8 13 00 00 00       	mov    $0x13,%eax
 538:	cd 40                	int    $0x40
 53a:	c3                   	ret    

0000053b <mkdir>:
 53b:	b8 14 00 00 00       	mov    $0x14,%eax
 540:	cd 40                	int    $0x40
 542:	c3                   	ret    

00000543 <chdir>:
 543:	b8 09 00 00 00       	mov    $0x9,%eax
 548:	cd 40                	int    $0x40
 54a:	c3                   	ret    

0000054b <dup>:
 54b:	b8 0a 00 00 00       	mov    $0xa,%eax
 550:	cd 40                	int    $0x40
 552:	c3                   	ret    

00000553 <getpid>:
 553:	b8 0b 00 00 00       	mov    $0xb,%eax
 558:	cd 40                	int    $0x40
 55a:	c3                   	ret    

0000055b <sbrk>:
 55b:	b8 0c 00 00 00       	mov    $0xc,%eax
 560:	cd 40                	int    $0x40
 562:	c3                   	ret    

00000563 <sleep>:
 563:	b8 0d 00 00 00       	mov    $0xd,%eax
 568:	cd 40                	int    $0x40
 56a:	c3                   	ret    

0000056b <uptime>:
 56b:	b8 0e 00 00 00       	mov    $0xe,%eax
 570:	cd 40                	int    $0x40
 572:	c3                   	ret    

00000573 <clone>:
 573:	b8 16 00 00 00       	mov    $0x16,%eax
 578:	cd 40                	int    $0x40
 57a:	c3                   	ret    

0000057b <join>:
 57b:	b8 17 00 00 00       	mov    $0x17,%eax
 580:	cd 40                	int    $0x40
 582:	c3                   	ret    
 583:	66 90                	xchg   %ax,%ax
 585:	66 90                	xchg   %ax,%ax
 587:	66 90                	xchg   %ax,%ax
 589:	66 90                	xchg   %ax,%ax
 58b:	66 90                	xchg   %ax,%ax
 58d:	66 90                	xchg   %ax,%ax
 58f:	90                   	nop

00000590 <printint>:
  write(fd, &c, 1);
}

static void
printint(int fd, int xx, int base, int sgn)
{
 590:	55                   	push   %ebp
 591:	89 e5                	mov    %esp,%ebp
 593:	57                   	push   %edi
 594:	56                   	push   %esi
 595:	53                   	push   %ebx
 596:	83 ec 3c             	sub    $0x3c,%esp
 599:	89 4d c4             	mov    %ecx,-0x3c(%ebp)
  uint x;

  neg = 0;
  if(sgn && xx < 0){
    neg = 1;
    x = -xx;
 59c:	89 d1                	mov    %edx,%ecx
{
 59e:	89 45 b8             	mov    %eax,-0x48(%ebp)
  if(sgn && xx < 0){
 5a1:	85 d2                	test   %edx,%edx
 5a3:	0f 89 7f 00 00 00    	jns    628 <printint+0x98>
 5a9:	f6 45 08 01          	testb  $0x1,0x8(%ebp)
 5ad:	74 79                	je     628 <printint+0x98>
    neg = 1;
 5af:	c7 45 bc 01 00 00 00 	movl   $0x1,-0x44(%ebp)
    x = -xx;
 5b6:	f7 d9                	neg    %ecx
  } else {
    x = xx;
  }

  i = 0;
 5b8:	31 db                	xor    %ebx,%ebx
 5ba:	8d 75 d7             	lea    -0x29(%ebp),%esi
 5bd:	8d 76 00             	lea    0x0(%esi),%esi
  do{
    buf[i++] = digits[x % base];
 5c0:	89 c8                	mov    %ecx,%eax
 5c2:	31 d2                	xor    %edx,%edx
 5c4:	89 cf                	mov    %ecx,%edi
 5c6:	f7 75 c4             	divl   -0x3c(%ebp)
 5c9:	0f b6 92 d4 09 00 00 	movzbl 0x9d4(%edx),%edx
 5d0:	89 45 c0             	mov    %eax,-0x40(%ebp)
 5d3:	89 d8                	mov    %ebx,%eax
 5d5:	8d 5b 01             	lea    0x1(%ebx),%ebx
  }while((x /= base) != 0);
 5d8:	8b 4d c0             	mov    -0x40(%ebp),%ecx
    buf[i++] = digits[x % base];
 5db:	88 14 1e             	mov    %dl,(%esi,%ebx,1)
  }while((x /= base) != 0);
 5de:	39 7d c4             	cmp    %edi,-0x3c(%ebp)
 5e1:	76 dd                	jbe    5c0 <printint+0x30>
  if(neg)
 5e3:	8b 4d bc             	mov    -0x44(%ebp),%ecx
 5e6:	85 c9                	test   %ecx,%ecx
 5e8:	74 0c                	je     5f6 <printint+0x66>
    buf[i++] = '-';
 5ea:	c6 44 1d d8 2d       	movb   $0x2d,-0x28(%ebp,%ebx,1)
    buf[i++] = digits[x % base];
 5ef:	89 d8                	mov    %ebx,%eax
    buf[i++] = '-';
 5f1:	ba 2d 00 00 00       	mov    $0x2d,%edx

  while(--i >= 0)
 5f6:	8b 7d b8             	mov    -0x48(%ebp),%edi
 5f9:	8d 5c 05 d7          	lea    -0x29(%ebp,%eax,1),%ebx
 5fd:	eb 07                	jmp    606 <printint+0x76>
 5ff:	90                   	nop
 600:	0f b6 13             	movzbl (%ebx),%edx
 603:	83 eb 01             	sub    $0x1,%ebx
  write(fd, &c, 1);
 606:	83 ec 04             	sub    $0x4,%esp
 609:	88 55 d7             	mov    %dl,-0x29(%ebp)
 60c:	6a 01                	push   $0x1
 60e:	56                   	push   %esi
 60f:	57                   	push   %edi
 610:	e8 de fe ff ff       	call   4f3 <write>
  while(--i >= 0)
 615:	83 c4 10             	add    $0x10,%esp
 618:	39 de                	cmp    %ebx,%esi
 61a:	75 e4                	jne    600 <printint+0x70>
    putc(fd, buf[i]);
}
 61c:	8d 65 f4             	lea    -0xc(%ebp),%esp
 61f:	5b                   	pop    %ebx
 620:	5e                   	pop    %esi
 621:	5f                   	pop    %edi
 622:	5d                   	pop    %ebp
 623:	c3                   	ret    
 624:	8d 74 26 00          	lea    0x0(%esi,%eiz,1),%esi
  neg = 0;
 628:	c7 45 bc 00 00 00 00 	movl   $0x0,-0x44(%ebp)
 62f:	eb 87                	jmp    5b8 <printint+0x28>
 631:	8d b4 26 00 00 00 00 	lea    0x0(%esi,%eiz,1),%esi
 638:	8d b4 26 00 00 00 00 	lea    0x0(%esi,%eiz,1),%esi
 63f:	90                   	nop

00000640 <printf>:

// Print to the given fd. Only understands %d, %x, %p, %s.
void
printf(int fd, const char *fmt, ...)
{
 640:	f3 0f 1e fb          	endbr32 
 644:	55                   	push   %ebp
 645:	89 e5                	mov    %esp,%ebp
 647:	57                   	push   %edi
 648:	56                   	push   %esi
 649:	53                   	push   %ebx
 64a:	83 ec 2c             	sub    $0x2c,%esp
  int c, i, state;
  uint *ap;

  state = 0;
  ap = (uint*)(void*)&fmt + 1;
  for(i = 0; fmt[i]; i++){
 64d:	8b 75 0c             	mov    0xc(%ebp),%esi
 650:	0f b6 1e             	movzbl (%esi),%ebx
 653:	84 db                	test   %bl,%bl
 655:	0f 84 b4 00 00 00    	je     70f <printf+0xcf>
  ap = (uint*)(void*)&fmt + 1;
 65b:	8d 45 10             	lea    0x10(%ebp),%eax
 65e:	83 c6 01             	add    $0x1,%esi
  write(fd, &c, 1);
 661:	8d 7d e7             	lea    -0x19(%ebp),%edi
  state = 0;
 664:	31 d2                	xor    %edx,%edx
  ap = (uint*)(void*)&fmt + 1;
 666:	89 45 d0             	mov    %eax,-0x30(%ebp)
 669:	eb 33                	jmp    69e <printf+0x5e>
 66b:	8d 74 26 00          	lea    0x0(%esi,%eiz,1),%esi
 66f:	90                   	nop
 670:	89 55 d4             	mov    %edx,-0x2c(%ebp)
    c = fmt[i] & 0xff;
    if(state == 0){
      if(c == '%'){
        state = '%';
 673:	ba 25 00 00 00       	mov    $0x25,%edx
      if(c == '%'){
 678:	83 f8 25             	cmp    $0x25,%eax
 67b:	74 17                	je     694 <printf+0x54>
  write(fd, &c, 1);
 67d:	83 ec 04             	sub    $0x4,%esp
 680:	88 5d e7             	mov    %bl,-0x19(%ebp)
 683:	6a 01                	push   $0x1
 685:	57                   	push   %edi
 686:	ff 75 08             	pushl  0x8(%ebp)
 689:	e8 65 fe ff ff       	call   4f3 <write>
 68e:	8b 55 d4             	mov    -0x2c(%ebp),%edx
      } else {
        putc(fd, c);
 691:	83 c4 10             	add    $0x10,%esp
  for(i = 0; fmt[i]; i++){
 694:	0f b6 1e             	movzbl (%esi),%ebx
 697:	83 c6 01             	add    $0x1,%esi
 69a:	84 db                	test   %bl,%bl
 69c:	74 71                	je     70f <printf+0xcf>
    c = fmt[i] & 0xff;
 69e:	0f be cb             	movsbl %bl,%ecx
 6a1:	0f b6 c3             	movzbl %bl,%eax
    if(state == 0){
 6a4:	85 d2                	test   %edx,%edx
 6a6:	74 c8                	je     670 <printf+0x30>
      }
    } else if(state == '%'){
 6a8:	83 fa 25             	cmp    $0x25,%edx
 6ab:	75 e7                	jne    694 <printf+0x54>
      if(c == 'd'){
 6ad:	83 f8 64             	cmp    $0x64,%eax
 6b0:	0f 84 9a 00 00 00    	je     750 <printf+0x110>
        printint(fd, *ap, 10, 1);
        ap++;
      } else if(c == 'x' || c == 'p'){
 6b6:	81 e1 f7 00 00 00    	and    $0xf7,%ecx
 6bc:	83 f9 70             	cmp    $0x70,%ecx
 6bf:	74 5f                	je     720 <printf+0xe0>
        printint(fd, *ap, 16, 0);
        ap++;
      } else if(c == 's'){
 6c1:	83 f8 73             	cmp    $0x73,%eax
 6c4:	0f 84 d6 00 00 00    	je     7a0 <printf+0x160>
          s = "(null)";
        while(*s != 0){
          putc(fd, *s);
          s++;
        }
      } else if(c == 'c'){
 6ca:	83 f8 63             	cmp    $0x63,%eax
 6cd:	0f 84 8d 00 00 00    	je     760 <printf+0x120>
        putc(fd, *ap);
        ap++;
      } else if(c == '%'){
 6d3:	83 f8 25             	cmp    $0x25,%eax
 6d6:	0f 84 b4 00 00 00    	je     790 <printf+0x150>
  write(fd, &c, 1);
 6dc:	83 ec 04             	sub    $0x4,%esp
 6df:	c6 45 e7 25          	movb   $0x25,-0x19(%ebp)
 6e3:	6a 01                	push   $0x1
 6e5:	57                   	push   %edi
 6e6:	ff 75 08             	pushl  0x8(%ebp)
 6e9:	e8 05 fe ff ff       	call   4f3 <write>
        putc(fd, c);
      } else {
        // Unknown % sequence.  Print it to draw attention.
        putc(fd, '%');
        putc(fd, c);
 6ee:	88 5d e7             	mov    %bl,-0x19(%ebp)
  write(fd, &c, 1);
 6f1:	83 c4 0c             	add    $0xc,%esp
 6f4:	6a 01                	push   $0x1
 6f6:	83 c6 01             	add    $0x1,%esi
 6f9:	57                   	push   %edi
 6fa:	ff 75 08             	pushl  0x8(%ebp)
 6fd:	e8 f1 fd ff ff       	call   4f3 <write>
  for(i = 0; fmt[i]; i++){
 702:	0f b6 5e ff          	movzbl -0x1(%esi),%ebx
        putc(fd, c);
 706:	83 c4 10             	add    $0x10,%esp
      }
      state = 0;
 709:	31 d2                	xor    %edx,%edx
  for(i = 0; fmt[i]; i++){
 70b:	84 db                	test   %bl,%bl
 70d:	75 8f                	jne    69e <printf+0x5e>
    }
  }
}
 70f:	8d 65 f4             	lea    -0xc(%ebp),%esp
 712:	5b                   	pop    %ebx
 713:	5e                   	pop    %esi
 714:	5f                   	pop    %edi
 715:	5d                   	pop    %ebp
 716:	c3                   	ret    
 717:	8d b4 26 00 00 00 00 	lea    0x0(%esi,%eiz,1),%esi
 71e:	66 90                	xchg   %ax,%ax
        printint(fd, *ap, 16, 0);
 720:	83 ec 0c             	sub    $0xc,%esp
 723:	b9 10 00 00 00       	mov    $0x10,%ecx
 728:	6a 00                	push   $0x0
 72a:	8b 5d d0             	mov    -0x30(%ebp),%ebx
 72d:	8b 45 08             	mov    0x8(%ebp),%eax
 730:	8b 13                	mov    (%ebx),%edx
 732:	e8 59 fe ff ff       	call   590 <printint>
        ap++;
 737:	89 d8                	mov    %ebx,%eax
 739:	83 c4 10             	add    $0x10,%esp
      state = 0;
 73c:	31 d2                	xor    %edx,%edx
        ap++;
 73e:	83 c0 04             	add    $0x4,%eax
 741:	89 45 d0             	mov    %eax,-0x30(%ebp)
 744:	e9 4b ff ff ff       	jmp    694 <printf+0x54>
 749:	8d b4 26 00 00 00 00 	lea    0x0(%esi,%eiz,1),%esi
        printint(fd, *ap, 10, 1);
 750:	83 ec 0c             	sub    $0xc,%esp
 753:	b9 0a 00 00 00       	mov    $0xa,%ecx
 758:	6a 01                	push   $0x1
 75a:	eb ce                	jmp    72a <printf+0xea>
 75c:	8d 74 26 00          	lea    0x0(%esi,%eiz,1),%esi
        putc(fd, *ap);
 760:	8b 5d d0             	mov    -0x30(%ebp),%ebx
  write(fd, &c, 1);
 763:	83 ec 04             	sub    $0x4,%esp
        putc(fd, *ap);
 766:	8b 03                	mov    (%ebx),%eax
  write(fd, &c, 1);
 768:	6a 01                	push   $0x1
        ap++;
 76a:	83 c3 04             	add    $0x4,%ebx
  write(fd, &c, 1);
 76d:	57                   	push   %edi
 76e:	ff 75 08             	pushl  0x8(%ebp)
        putc(fd, *ap);
 771:	88 45 e7             	mov    %al,-0x19(%ebp)
  write(fd, &c, 1);
 774:	e8 7a fd ff ff       	call   4f3 <write>
        ap++;
 779:	89 5d d0             	mov    %ebx,-0x30(%ebp)
 77c:	83 c4 10             	add    $0x10,%esp
      state = 0;
 77f:	31 d2                	xor    %edx,%edx
 781:	e9 0e ff ff ff       	jmp    694 <printf+0x54>
 786:	8d b4 26 00 00 00 00 	lea    0x0(%esi,%eiz,1),%esi
 78d:	8d 76 00             	lea    0x0(%esi),%esi
        putc(fd, c);
 790:	88 5d e7             	mov    %bl,-0x19(%ebp)
  write(fd, &c, 1);
 793:	83 ec 04             	sub    $0x4,%esp
 796:	e9 59 ff ff ff       	jmp    6f4 <printf+0xb4>
 79b:	8d 74 26 00          	lea    0x0(%esi,%eiz,1),%esi
 79f:	90                   	nop
        s = (char*)*ap;
 7a0:	8b 45 d0             	mov    -0x30(%ebp),%eax
 7a3:	8b 18                	mov    (%eax),%ebx
        ap++;
 7a5:	83 c0 04             	add    $0x4,%eax
 7a8:	89 45 d0             	mov    %eax,-0x30(%ebp)
        if(s == 0)
 7ab:	85 db                	test   %ebx,%ebx
 7ad:	74 17                	je     7c6 <printf+0x186>
        while(*s != 0){
 7af:	0f b6 03             	movzbl (%ebx),%eax
      state = 0;
 7b2:	31 d2                	xor    %edx,%edx
        while(*s != 0){
 7b4:	84 c0                	test   %al,%al
 7b6:	0f 84 d8 fe ff ff    	je     694 <printf+0x54>
 7bc:	89 75 d4             	mov    %esi,-0x2c(%ebp)
 7bf:	89 de                	mov    %ebx,%esi
 7c1:	8b 5d 08             	mov    0x8(%ebp),%ebx
 7c4:	eb 1a                	jmp    7e0 <printf+0x1a0>
          s = "(null)";
 7c6:	bb cb 09 00 00       	mov    $0x9cb,%ebx
        while(*s != 0){
 7cb:	89 75 d4             	mov    %esi,-0x2c(%ebp)
 7ce:	b8 28 00 00 00       	mov    $0x28,%eax
 7d3:	89 de                	mov    %ebx,%esi
 7d5:	8b 5d 08             	mov    0x8(%ebp),%ebx
 7d8:	8d b4 26 00 00 00 00 	lea    0x0(%esi,%eiz,1),%esi
 7df:	90                   	nop
  write(fd, &c, 1);
 7e0:	83 ec 04             	sub    $0x4,%esp
          s++;
 7e3:	83 c6 01             	add    $0x1,%esi
 7e6:	88 45 e7             	mov    %al,-0x19(%ebp)
  write(fd, &c, 1);
 7e9:	6a 01                	push   $0x1
 7eb:	57                   	push   %edi
 7ec:	53                   	push   %ebx
 7ed:	e8 01 fd ff ff       	call   4f3 <write>
        while(*s != 0){
 7f2:	0f b6 06             	movzbl (%esi),%eax
 7f5:	83 c4 10             	add    $0x10,%esp
 7f8:	84 c0                	test   %al,%al
 7fa:	75 e4                	jne    7e0 <printf+0x1a0>
 7fc:	8b 75 d4             	mov    -0x2c(%ebp),%esi
      state = 0;
 7ff:	31 d2                	xor    %edx,%edx
 801:	e9 8e fe ff ff       	jmp    694 <printf+0x54>
 806:	66 90                	xchg   %ax,%ax
 808:	66 90                	xchg   %ax,%ax
 80a:	66 90                	xchg   %ax,%ax
 80c:	66 90                	xchg   %ax,%ax
 80e:	66 90                	xchg   %ax,%ax

00000810 <free>:
static Header base;
static Header *freep;

void
free(void *ap)
{
 810:	f3 0f 1e fb          	endbr32 
 814:	55                   	push   %ebp
  Header *bp, *p;

  bp = (Header*)ap - 1;
  for(p = freep; !(bp > p && bp < p->s.ptr); p = p->s.ptr)
 815:	a1 40 0d 00 00       	mov    0xd40,%eax
{
 81a:	89 e5                	mov    %esp,%ebp
 81c:	57                   	push   %edi
 81d:	56                   	push   %esi
 81e:	53                   	push   %ebx
 81f:	8b 5d 08             	mov    0x8(%ebp),%ebx
 822:	8b 10                	mov    (%eax),%edx
  bp = (Header*)ap - 1;
 824:	8d 4b f8             	lea    -0x8(%ebx),%ecx
  for(p = freep; !(bp > p && bp < p->s.ptr); p = p->s.ptr)
 827:	39 c8                	cmp    %ecx,%eax
 829:	73 15                	jae    840 <free+0x30>
 82b:	8d 74 26 00          	lea    0x0(%esi,%eiz,1),%esi
 82f:	90                   	nop
 830:	39 d1                	cmp    %edx,%ecx
 832:	72 14                	jb     848 <free+0x38>
    if(p >= p->s.ptr && (bp > p || bp < p->s.ptr))
 834:	39 d0                	cmp    %edx,%eax
 836:	73 10                	jae    848 <free+0x38>
{
 838:	89 d0                	mov    %edx,%eax
  for(p = freep; !(bp > p && bp < p->s.ptr); p = p->s.ptr)
 83a:	8b 10                	mov    (%eax),%edx
 83c:	39 c8                	cmp    %ecx,%eax
 83e:	72 f0                	jb     830 <free+0x20>
    if(p >= p->s.ptr && (bp > p || bp < p->s.ptr))
 840:	39 d0                	cmp    %edx,%eax
 842:	72 f4                	jb     838 <free+0x28>
 844:	39 d1                	cmp    %edx,%ecx
 846:	73 f0                	jae    838 <free+0x28>
      break;
  if(bp + bp->s.size == p->s.ptr){
 848:	8b 73 fc             	mov    -0x4(%ebx),%esi
 84b:	8d 3c f1             	lea    (%ecx,%esi,8),%edi
 84e:	39 fa                	cmp    %edi,%edx
 850:	74 1e                	je     870 <free+0x60>
    bp->s.size += p->s.ptr->s.size;
    bp->s.ptr = p->s.ptr->s.ptr;
  } else
    bp->s.ptr = p->s.ptr;
 852:	89 53 f8             	mov    %edx,-0x8(%ebx)
  if(p + p->s.size == bp){
 855:	8b 50 04             	mov    0x4(%eax),%edx
 858:	8d 34 d0             	lea    (%eax,%edx,8),%esi
 85b:	39 f1                	cmp    %esi,%ecx
 85d:	74 28                	je     887 <free+0x77>
    p->s.size += bp->s.size;
    p->s.ptr = bp->s.ptr;
  } else
    p->s.ptr = bp;
 85f:	89 08                	mov    %ecx,(%eax)
  freep = p;
}
 861:	5b                   	pop    %ebx
  freep = p;
 862:	a3 40 0d 00 00       	mov    %eax,0xd40
}
 867:	5e                   	pop    %esi
 868:	5f                   	pop    %edi
 869:	5d                   	pop    %ebp
 86a:	c3                   	ret    
 86b:	8d 74 26 00          	lea    0x0(%esi,%eiz,1),%esi
 86f:	90                   	nop
    bp->s.size += p->s.ptr->s.size;
 870:	03 72 04             	add    0x4(%edx),%esi
 873:	89 73 fc             	mov    %esi,-0x4(%ebx)
    bp->s.ptr = p->s.ptr->s.ptr;
 876:	8b 10                	mov    (%eax),%edx
 878:	8b 12                	mov    (%edx),%edx
 87a:	89 53 f8             	mov    %edx,-0x8(%ebx)
  if(p + p->s.size == bp){
 87d:	8b 50 04             	mov    0x4(%eax),%edx
 880:	8d 34 d0             	lea    (%eax,%edx,8),%esi
 883:	39 f1                	cmp    %esi,%ecx
 885:	75 d8                	jne    85f <free+0x4f>
    p->s.size += bp->s.size;
 887:	03 53 fc             	add    -0x4(%ebx),%edx
  freep = p;
 88a:	a3 40 0d 00 00       	mov    %eax,0xd40
    p->s.size += bp->s.size;
 88f:	89 50 04             	mov    %edx,0x4(%eax)
    p->s.ptr = bp->s.ptr;
 892:	8b 53 f8             	mov    -0x8(%ebx),%edx
 895:	89 10                	mov    %edx,(%eax)
}
 897:	5b                   	pop    %ebx
 898:	5e                   	pop    %esi
 899:	5f                   	pop    %edi
 89a:	5d                   	pop    %ebp
 89b:	c3                   	ret    
 89c:	8d 74 26 00          	lea    0x0(%esi,%eiz,1),%esi

000008a0 <malloc>:
  return freep;
}

void*
malloc(uint nbytes)
{
 8a0:	f3 0f 1e fb          	endbr32 
 8a4:	55                   	push   %ebp
 8a5:	89 e5                	mov    %esp,%ebp
 8a7:	57                   	push   %edi
 8a8:	56                   	push   %esi
 8a9:	53                   	push   %ebx
 8aa:	83 ec 1c             	sub    $0x1c,%esp
  Header *p, *prevp;
  uint nunits;

  nunits = (nbytes + sizeof(Header) - 1)/sizeof(Header) + 1;
 8ad:	8b 45 08             	mov    0x8(%ebp),%eax
  if((prevp = freep) == 0){
 8b0:	8b 3d 40 0d 00 00    	mov    0xd40,%edi
  nunits = (nbytes + sizeof(Header) - 1)/sizeof(Header) + 1;
 8b6:	8d 70 07             	lea    0x7(%eax),%esi
 8b9:	c1 ee 03             	shr    $0x3,%esi
 8bc:	83 c6 01             	add    $0x1,%esi
  if((prevp = freep) == 0){
 8bf:	85 ff                	test   %edi,%edi
 8c1:	0f 84 a9 00 00 00    	je     970 <malloc+0xd0>
    base.s.ptr = freep = prevp = &base;
    base.s.size = 0;
  }
  for(p = prevp->s.ptr; ; prevp = p, p = p->s.ptr){
 8c7:	8b 07                	mov    (%edi),%eax
    if(p->s.size >= nunits){
 8c9:	8b 48 04             	mov    0x4(%eax),%ecx
 8cc:	39 f1                	cmp    %esi,%ecx
 8ce:	73 6d                	jae    93d <malloc+0x9d>
 8d0:	81 fe 00 10 00 00    	cmp    $0x1000,%esi
 8d6:	bb 00 10 00 00       	mov    $0x1000,%ebx
 8db:	0f 43 de             	cmovae %esi,%ebx
  p = sbrk(nu * sizeof(Header));
 8de:	8d 0c dd 00 00 00 00 	lea    0x0(,%ebx,8),%ecx
 8e5:	89 4d e4             	mov    %ecx,-0x1c(%ebp)
 8e8:	eb 17                	jmp    901 <malloc+0x61>
 8ea:	8d b6 00 00 00 00    	lea    0x0(%esi),%esi
  for(p = prevp->s.ptr; ; prevp = p, p = p->s.ptr){
 8f0:	8b 10                	mov    (%eax),%edx
    if(p->s.size >= nunits){
 8f2:	8b 4a 04             	mov    0x4(%edx),%ecx
 8f5:	39 f1                	cmp    %esi,%ecx
 8f7:	73 4f                	jae    948 <malloc+0xa8>
 8f9:	8b 3d 40 0d 00 00    	mov    0xd40,%edi
 8ff:	89 d0                	mov    %edx,%eax
        p->s.size = nunits;
      }
      freep = prevp;
      return (void*)(p + 1);
    }
    if(p == freep)
 901:	39 c7                	cmp    %eax,%edi
 903:	75 eb                	jne    8f0 <malloc+0x50>
  p = sbrk(nu * sizeof(Header));
 905:	83 ec 0c             	sub    $0xc,%esp
 908:	ff 75 e4             	pushl  -0x1c(%ebp)
 90b:	e8 4b fc ff ff       	call   55b <sbrk>
  if(p == (char*)-1)
 910:	83 c4 10             	add    $0x10,%esp
 913:	83 f8 ff             	cmp    $0xffffffff,%eax
 916:	74 1b                	je     933 <malloc+0x93>
  hp->s.size = nu;
 918:	89 58 04             	mov    %ebx,0x4(%eax)
  free((void*)(hp + 1));
 91b:	83 ec 0c             	sub    $0xc,%esp
 91e:	83 c0 08             	add    $0x8,%eax
 921:	50                   	push   %eax
 922:	e8 e9 fe ff ff       	call   810 <free>
  return freep;
 927:	a1 40 0d 00 00       	mov    0xd40,%eax
      if((p = morecore(nunits)) == 0)
 92c:	83 c4 10             	add    $0x10,%esp
 92f:	85 c0                	test   %eax,%eax
 931:	75 bd                	jne    8f0 <malloc+0x50>
        return 0;
  }
}
 933:	8d 65 f4             	lea    -0xc(%ebp),%esp
        return 0;
 936:	31 c0                	xor    %eax,%eax
}
 938:	5b                   	pop    %ebx
 939:	5e                   	pop    %esi
 93a:	5f                   	pop    %edi
 93b:	5d                   	pop    %ebp
 93c:	c3                   	ret    
    if(p->s.size >= nunits){
 93d:	89 c2                	mov    %eax,%edx
 93f:	89 f8                	mov    %edi,%eax
 941:	8d b4 26 00 00 00 00 	lea    0x0(%esi,%eiz,1),%esi
      if(p->s.size == nunits)
 948:	39 ce                	cmp    %ecx,%esi
 94a:	74 54                	je     9a0 <malloc+0x100>
        p->s.size -= nunits;
 94c:	29 f1                	sub    %esi,%ecx
 94e:	89 4a 04             	mov    %ecx,0x4(%edx)
        p += p->s.size;
 951:	8d 14 ca             	lea    (%edx,%ecx,8),%edx
        p->s.size = nunits;
 954:	89 72 04             	mov    %esi,0x4(%edx)
      freep = prevp;
 957:	a3 40 0d 00 00       	mov    %eax,0xd40
}
 95c:	8d 65 f4             	lea    -0xc(%ebp),%esp
      return (void*)(p + 1);
 95f:	8d 42 08             	lea    0x8(%edx),%eax
}
 962:	5b                   	pop    %ebx
 963:	5e                   	pop    %esi
 964:	5f                   	pop    %edi
 965:	5d                   	pop    %ebp
 966:	c3                   	ret    
 967:	8d b4 26 00 00 00 00 	lea    0x0(%esi,%eiz,1),%esi
 96e:	66 90                	xchg   %ax,%ax
    base.s.ptr = freep = prevp = &base;
 970:	c7 05 40 0d 00 00 44 	movl   $0xd44,0xd40
 977:	0d 00 00 
    base.s.size = 0;
 97a:	bf 44 0d 00 00       	mov    $0xd44,%edi
    base.s.ptr = freep = prevp = &base;
 97f:	c7 05 44 0d 00 00 44 	movl   $0xd44,0xd44
 986:	0d 00 00 
  for(p = prevp->s.ptr; ; prevp = p, p = p->s.ptr){
 989:	89 f8                	mov    %edi,%eax
    base.s.size = 0;
 98b:	c7 05 48 0d 00 00 00 	movl   $0x0,0xd48
 992:	00 00 00 
    if(p->s.size >= nunits){
 995:	e9 36 ff ff ff       	jmp    8d0 <malloc+0x30>
 99a:	8d b6 00 00 00 00    	lea    0x0(%esi),%esi
        prevp->s.ptr = p->s.ptr;
 9a0:	8b 0a                	mov    (%edx),%ecx
 9a2:	89 08                	mov    %ecx,(%eax)
 9a4:	eb b1                	jmp    957 <malloc+0xb7>
